target datalayout = "e-m:e-p270:32:32-p271:32:32-p272:64:64-i64:64-i128:128-f80:128-n8:16:32:64-S128"
target triple = "x86_64-pc-linux-gnu"

@hf_pgsl_pacch = internal global i32 0, align 4
@hf_pgsl_ab_rxlev = internal global i32 0, align 4
@hf_pgsl_ab_acc_delay = internal global i32 0, align 4
@hf_pgsl_ab_abi = internal global i32 0, align 4
@hf_pgsl_ab_ab_type = internal global i32 0, align 4
@ett_pacch = internal global i32 0, align 4
@sub_handles = internal global [2 x ptr] zeroinitializer, align 16
@.str.136 = private unnamed_addr constant [41 x i8] c" Valid, RxLev %u, Delay %u bits, Type %s\00", align 1
@.str.137 = private unnamed_addr constant [5 x i8] c"0x%x\00", align 1
@.str.138 = private unnamed_addr constant [19 x i8] c" Invalid, RxLev %u\00", align 1

; Function Attrs: null_pointer_is_valid sspstrong uwtable
define internal void @dissect_pgsl_access_burst(ptr noundef %0, i32 noundef %1, ptr noundef %2, ptr noundef %3, ptr noundef %4) #0 {
  %6 = alloca ptr, align 8
  %7 = alloca i32, align 4
  %8 = alloca ptr, align 8
  %9 = alloca ptr, align 8
  %10 = alloca ptr, align 8
  %11 = alloca ptr, align 8
  %12 = alloca ptr, align 8
  %13 = alloca ptr, align 8
  %14 = alloca i32, align 4
  %15 = alloca i32, align 4
  %16 = alloca i32, align 4
  %17 = alloca i16, align 2
  store ptr %0, ptr %6, align 8
  store i32 %1, ptr %7, align 4
  store ptr %2, ptr %8, align 8
  store ptr %3, ptr %9, align 8
  store ptr %4, ptr %10, align 8
  call void @llvm.lifetime.start.p0(i64 8, ptr %11) #10
  call void @llvm.lifetime.start.p0(i64 8, ptr %12) #10
  call void @llvm.lifetime.start.p0(i64 8, ptr %13) #10
  call void @llvm.lifetime.start.p0(i64 4, ptr %14) #10
  call void @llvm.lifetime.start.p0(i64 4, ptr %15) #10
  call void @llvm.lifetime.start.p0(i64 4, ptr %16) #10
  call void @llvm.lifetime.start.p0(i64 2, ptr %17) #10
  %18 = load ptr, ptr %9, align 8
  %19 = load i32, ptr @hf_pgsl_pacch, align 4
  %20 = load ptr, ptr %6, align 8
  %21 = load i32, ptr %7, align 4
  %22 = call ptr @proto_tree_add_item(ptr noundef %18, i32 noundef %19, ptr noundef %20, i32 noundef %21, i32 noundef 5, i32 noundef 0)
  store ptr %22, ptr %11, align 8
  %23 = load ptr, ptr %11, align 8
  %24 = load i32, ptr @ett_pacch, align 4
  %25 = call ptr @proto_item_add_subtree(ptr noundef %23, i32 noundef %24)
  store ptr %25, ptr %12, align 8
  %26 = load ptr, ptr %12, align 8
  %27 = load i32, ptr @hf_pgsl_ab_rxlev, align 4
  %28 = load ptr, ptr %6, align 8
  %29 = load i32, ptr %7, align 4
  %30 = add i32 %29, 1
  store i32 %30, ptr %7, align 4
  %31 = call ptr @proto_tree_add_item_ret_uint(ptr noundef %26, i32 noundef %27, ptr noundef %28, i32 noundef %29, i32 noundef 1, i32 noundef 0, ptr noundef %14)
  %32 = load ptr, ptr %6, align 8
  %33 = load i32, ptr %7, align 4
  %34 = call zeroext i8 @tvb_get_uint8(ptr noundef %32, i32 noundef %33)
  %35 = zext i8 %34 to i16
  store i16 %35, ptr %17, align 2
  %36 = load ptr, ptr %6, align 8
  %37 = load i32, ptr %7, align 4
  %38 = add i32 %37, 1
  %39 = mul i32 %38, 8
  %40 = add i32 %39, 6
  %41 = call zeroext i8 @tvb_get_bits8(ptr noundef %36, i32 noundef %40, i32 noundef 2)
  %42 = zext i8 %41 to i32
  %43 = shl i32 %42, 8
  %44 = load i16, ptr %17, align 2
  %45 = zext i16 %44 to i32
  %46 = or i32 %45, %43
  %47 = trunc i32 %46 to i16
  store i16 %47, ptr %17, align 2
  %48 = load ptr, ptr %12, align 8
  %49 = load i32, ptr @hf_pgsl_ab_acc_delay, align 4
  %50 = load ptr, ptr %6, align 8
  %51 = load i32, ptr %7, align 4
  %52 = load i16, ptr %17, align 2
  %53 = zext i16 %52 to i32
  %54 = call ptr @proto_tree_add_uint(ptr noundef %48, i32 noundef %49, ptr noundef %50, i32 noundef %51, i32 noundef 2, i32 noundef %53)
  %55 = load i32, ptr %7, align 4
  %56 = add i32 %55, 1
  store i32 %56, ptr %7, align 4
  %57 = load ptr, ptr %12, align 8
  %58 = load i32, ptr @hf_pgsl_ab_abi, align 4
  %59 = load ptr, ptr %6, align 8
  %60 = load i32, ptr %7, align 4
  %61 = call ptr @proto_tree_add_item_ret_uint(ptr noundef %57, i32 noundef %58, ptr noundef %59, i32 noundef %60, i32 noundef 1, i32 noundef 0, ptr noundef %16)
  %62 = load ptr, ptr %12, align 8
  %63 = load i32, ptr @hf_pgsl_ab_ab_type, align 4
  %64 = load ptr, ptr %6, align 8
  %65 = load i32, ptr %7, align 4
  %66 = call ptr @proto_tree_add_item_ret_uint(ptr noundef %62, i32 noundef %63, ptr noundef %64, i32 noundef %65, i32 noundef 1, i32 noundef 0, ptr noundef %15)
  %67 = load i32, ptr %7, align 4
  %68 = add i32 %67, 1
  store i32 %68, ptr %7, align 4
  %69 = load i32, ptr %16, align 4
  %70 = icmp ne i32 %69, 0
  br i1 %70, label %71, label %87

71:                                               ; preds = %5
  %72 = load ptr, ptr %11, align 8
  %73 = load i32, ptr %14, align 4
  %74 = load i16, ptr %17, align 2
  %75 = zext i16 %74 to i32
  %76 = load i32, ptr %15, align 4
  %77 = call ptr @val_to_str(i32 noundef %76, ptr noundef @pgsl_ab_type_vals, ptr noundef @.str.137)
  call void (ptr, ptr, ...) @proto_item_append_text(ptr noundef %72, ptr noundef @.str.136, i32 noundef %73, i32 noundef %75, ptr noundef %77)
  %78 = load ptr, ptr %6, align 8
  %79 = load i32, ptr %7, align 4
  %80 = call ptr @tvb_new_subset_length(ptr noundef %78, i32 noundef %79, i32 noundef 2)
  store ptr %80, ptr %13, align 8
  %81 = load ptr, ptr @sub_handles, align 16
  %82 = load ptr, ptr %13, align 8
  %83 = load ptr, ptr %8, align 8
  %84 = load ptr, ptr %12, align 8
  %85 = load ptr, ptr %10, align 8
  %86 = call i32 @call_dissector_with_data(ptr noundef %81, ptr noundef %82, ptr noundef %83, ptr noundef %84, ptr noundef %85)
  br label %90

87:                                               ; preds = %5
  %88 = load ptr, ptr %11, align 8
  %89 = load i32, ptr %14, align 4
  call void (ptr, ptr, ...) @proto_item_append_text(ptr noundef %88, ptr noundef @.str.138, i32 noundef %89)
  br label %90

90:                                               ; preds = %87, %71
  call void @llvm.lifetime.end.p0(i64 2, ptr %17) #10
  call void @llvm.lifetime.end.p0(i64 4, ptr %16) #10
  call void @llvm.lifetime.end.p0(i64 4, ptr %15) #10
  call void @llvm.lifetime.end.p0(i64 4, ptr %14) #10
  call void @llvm.lifetime.end.p0(i64 8, ptr %13) #10
  call void @llvm.lifetime.end.p0(i64 8, ptr %12) #10
  call void @llvm.lifetime.end.p0(i64 8, ptr %11) #10
  ret void
}