; Function Attrs: null_pointer_is_valid sspstrong uwtable
define internal fastcc void @dissect_pgsl_access_burst(ptr noundef %0, i32 noundef range(i32 0, 16) %1, ptr noundef %2, ptr noundef %3, ptr noundef %4) unnamed_addr #0 {
  %6 = alloca i32, align 4
  %7 = alloca i32, align 4
  %8 = alloca i32, align 4
  call void @llvm.lifetime.start.p0(i64 4, ptr nonnull %6) #8
  call void @llvm.lifetime.start.p0(i64 4, ptr nonnull %7) #8
  call void @llvm.lifetime.start.p0(i64 4, ptr nonnull %8) #8
  %9 = load i32, ptr @hf_pgsl_pacch, align 4
  %10 = tail call ptr @proto_tree_add_item(ptr noundef %3, i32 noundef %9, ptr noundef %0, i32 noundef %1, i32 noundef 5, i32 noundef 0)
  %11 = load i32, ptr @ett_pacch, align 4
  %12 = tail call ptr @proto_item_add_subtree(ptr noundef %10, i32 noundef %11)
  %13 = load i32, ptr @hf_pgsl_ab_rxlev, align 4
  %14 = add nuw nsw i32 %1, 1
  %15 = call ptr @proto_tree_add_item_ret_uint(ptr noundef %12, i32 noundef %13, ptr noundef %0, i32 noundef %1, i32 noundef 1, i32 noundef 0, ptr noundef nonnull %6)
  %16 = call zeroext i8 @tvb_get_uint8(ptr noundef %0, i32 noundef %14)
  %17 = add nuw nsw i32 %1, 2
  %18 = shl nuw nsw i32 %17, 3
  %19 = or disjoint i32 %18, 6
  %20 = call zeroext i8 @tvb_get_bits8(ptr noundef %0, i32 noundef %19, i32 noundef 2)
  %21 = zext i8 %20 to i32
  %22 = shl nuw nsw i32 %21, 8
  %23 = zext i8 %16 to i32
  %24 = or disjoint i32 %22, %23
  %25 = load i32, ptr @hf_pgsl_ab_acc_delay, align 4
  %26 = call ptr @proto_tree_add_uint(ptr noundef %12, i32 noundef %25, ptr noundef %0, i32 noundef %14, i32 noundef 2, i32 noundef %24)
  %27 = load i32, ptr @hf_pgsl_ab_abi, align 4
  %28 = call ptr @proto_tree_add_item_ret_uint(ptr noundef %12, i32 noundef %27, ptr noundef %0, i32 noundef %17, i32 noundef 1, i32 noundef 0, ptr noundef nonnull %8)
  %29 = load i32, ptr @hf_pgsl_ab_ab_type, align 4
  %30 = call ptr @proto_tree_add_item_ret_uint(ptr noundef %12, i32 noundef %29, ptr noundef %0, i32 noundef %17, i32 noundef 1, i32 noundef 0, ptr noundef nonnull %7)
  %31 = load i32, ptr %8, align 4
  %.not = icmp eq i32 %31, 0
  br i1 %.not, label %40, label %32

32:                                               ; preds = %5
  %33 = add nuw nsw i32 %1, 3
  %34 = load i32, ptr %6, align 4
  %35 = load i32, ptr %7, align 4
  %36 = call ptr @val_to_str(i32 noundef %35, ptr noundef nonnull @pgsl_ab_type_vals, ptr noundef nonnull @.str.137)
  call void (ptr, ptr, ...) @proto_item_append_text(ptr noundef %10, ptr noundef nonnull @.str.136, i32 noundef %34, i32 noundef %24, ptr noundef %36)
  %37 = call ptr @tvb_new_subset_length(ptr noundef %0, i32 noundef %33, i32 noundef 2)
  %38 = load ptr, ptr @sub_handles.0, align 16
  %39 = call i32 @call_dissector_with_data(ptr noundef %38, ptr noundef %37, ptr noundef %2, ptr noundef %12, ptr noundef %4)
  br label %42

40:                                               ; preds = %5
  %41 = load i32, ptr %6, align 4
  call void (ptr, ptr, ...) @proto_item_append_text(ptr noundef %10, ptr noundef nonnull @.str.138, i32 noundef %41)
  br label %42

42:                                               ; preds = %40, %32
  call void @llvm.lifetime.end.p0(i64 4, ptr nonnull %8) #8
  call void @llvm.lifetime.end.p0(i64 4, ptr nonnull %7) #8
  call void @llvm.lifetime.end.p0(i64 4, ptr nonnull %6) #8
  ret void
}